Certificate:
    Data:
        Version: 3 (0x2)
        Serial Number: 4097 (0x1001)
        Signature Algorithm: md5WithRSAEncryption
        Issuer: C=us, ST=utah, L=slc, O=uofu, OU=msd, CN=terry/emailAddress=tarou2001@outlook.com
        Validity
            Not Before: Apr  1 19:52:03 2024 GMT
            Not After : Apr  1 19:52:03 2025 GMT
        Subject: C=us, ST=utah, O=uofu, OU=msd, CN=terry_client
        Subject Public Key Info:
            Public Key Algorithm: rsaEncryption
                Public-Key: (4096 bit)
                Modulus:
                    00:c1:84:78:83:22:a0:76:ec:36:6f:7d:c3:18:23:
                    ca:45:58:31:bd:7c:6d:3e:35:10:d0:be:e6:45:e6:
                    6a:18:a9:33:54:4c:52:c1:48:3b:ea:8b:a7:8b:e1:
                    e7:14:fa:97:1f:c6:64:ea:fb:1d:c8:fa:0e:96:11:
                    c5:72:9b:18:67:12:8f:5a:55:ae:d1:24:a6:24:f7:
                    aa:f0:1b:19:e5:ba:e4:20:de:3b:e0:ac:00:62:a5:
                    1a:12:44:bf:d1:57:3f:3e:2b:10:f0:81:e7:78:b0:
                    e1:fd:a3:f4:53:e1:10:06:ef:80:cc:99:da:c9:51:
                    80:72:51:3b:02:63:21:ff:89:db:b5:4c:6a:ea:2b:
                    ab:ca:15:f2:ad:8a:f3:7c:02:24:48:27:69:71:65:
                    6b:da:32:f1:19:12:95:55:16:79:e2:6c:9f:aa:c7:
                    eb:3a:f9:1e:54:e5:9c:84:03:97:ec:70:f9:bf:2a:
                    21:5c:6f:fa:7a:5a:ba:d6:06:ed:ae:70:eb:43:85:
                    9e:9f:b5:d7:d4:ec:2f:f3:34:fd:b8:2a:72:9a:40:
                    5d:f2:62:bf:97:59:6c:3a:6f:87:d5:a4:9b:b8:b3:
                    c9:96:e2:5a:1f:b5:4e:7d:35:7c:a6:06:18:5e:81:
                    ee:71:65:91:80:1e:4f:f4:34:a7:f6:20:1f:ec:d8:
                    25:3d:fc:c1:47:0c:17:dd:f0:9d:7f:22:23:7a:75:
                    3a:93:0f:4c:7f:51:71:9c:d9:82:56:50:9b:95:52:
                    62:7e:f2:23:99:7d:2b:86:5a:29:8e:83:35:25:4a:
                    f7:b7:ae:97:13:8e:04:51:dd:18:b3:08:41:6a:d7:
                    d5:1b:99:05:0d:b1:dc:bf:9c:d4:06:78:24:47:26:
                    9d:d9:3c:0d:44:1f:bb:57:de:a6:58:b3:c4:67:6d:
                    3a:8e:96:98:88:77:c1:88:6a:98:23:36:c1:be:a1:
                    f3:64:94:00:6d:f0:4d:97:d5:a2:bd:a3:11:9c:63:
                    fd:5a:a6:64:56:45:69:b1:1d:b6:a1:d0:c2:9d:a6:
                    10:8a:ec:6b:ca:c5:33:53:95:46:f7:03:13:5d:46:
                    f0:ac:e5:7a:6a:20:65:8d:12:a3:2b:4d:61:33:5f:
                    43:85:e0:6e:ab:0d:91:ec:32:0d:62:2a:d6:96:12:
                    17:68:f4:56:6d:38:ea:1d:44:95:7a:a0:b7:f2:91:
                    90:53:80:01:3f:4e:a5:40:d7:9e:0f:58:40:d8:71:
                    71:8f:00:1f:35:55:e3:a5:fc:a5:61:1c:6c:64:ce:
                    86:23:b0:51:fa:da:f6:1c:14:c1:cd:24:d2:df:d1:
                    97:c5:a4:7e:90:a9:ab:bb:25:66:7a:55:f4:d3:ac:
                    58:ae:f9
                Exponent: 65537 (0x10001)
        X509v3 extensions:
            X509v3 Basic Constraints: 
                CA:FALSE
            Netscape Comment: 
                OpenSSL Generated Certificate
            X509v3 Subject Key Identifier: 
                E7:02:01:84:E0:1B:A6:E6:F3:D9:3F:A4:01:07:60:F4:04:96:6C:CB
            X509v3 Authority Key Identifier: 
                keyid:9E:19:9C:17:63:A7:34:AE:94:62:6A:AC:B3:F5:4B:87:75:BC:D2:67
                DirName:/C=us/ST=utah/L=slc/O=uofu/OU=msd/CN=terry/emailAddress=tarou2001@outlook.com
                serial:4C:A6:B9:BB:9D:22:D2:BE:37:34:ED:2C:AA:47:85:3C:9A:A5:D3:43
    Signature Algorithm: md5WithRSAEncryption
    Signature Value:
        65:c0:60:76:f5:f3:b5:f3:9d:fa:96:cd:d5:51:0f:2a:84:3f:
        64:75:ef:c0:06:52:aa:5a:73:6b:d8:9a:d2:9e:a5:82:fb:21:
        95:c5:14:4a:6a:c0:02:20:04:d4:72:f3:f5:86:15:78:66:68:
        99:ec:bf:dc:9a:02:3e:a9:9c:93:5b:c6:b6:40:d0:e8:83:ba:
        a4:6f:ba:a5:f4:f7:09:65:dd:28:4d:f8:04:58:74:ae:1d:1c:
        99:35:a1:99:3d:32:a1:29:c1:a4:dc:23:98:8a:87:c0:63:83:
        ec:ec:6c:c4:d1:64:bb:dd:6b:bd:57:c7:87:31:e7:2a:a1:dc:
        cb:c6:55:37:61:29:2f:af:2e:19:a5:0f:73:15:73:a7:48:be:
        16:8b:5b:b6:05:24:3d:35:49:ba:b5:0c:8b:c7:a8:7d:75:5f:
        1e:80:bb:88:d3:06:54:3b:b8:68:e5:bc:d9:22:82:ed:87:7b:
        c0:f5:4f:57:ff:c7:d8:ac:7e:47:d1:4c:ae:a4:30:ac:f5:7e:
        f1:a6:69:89:ab:99:93:dc:54:f7:99:48:e5:88:34:dd:16:cf:
        4e:b0:cd:37:16:43:22:47:13:53:4e:c5:34:8b:3f:89:3f:55:
        10:80:ff:ca:b3:4a:cf:8a:5b:c0:88:e7:54:c1:76:9c:97:3c:
        b8:d9:fc:61:17:87:66:ab:a1:53:3d:be:89:20:75:cb:f2:6f:
        49:a3:de:b8:51:4a:43:3f:ae:76:ff:2f:8e:12:0d:7b:3d:99:
        97:03:69:ab:be:99:80:c9:d8:6a:d1:1a:9a:fa:2a:c2:0a:e9:
        63:af:b3:71:ee:19:7b:eb:f1:25:5d:da:e8:e6:60:60:ad:63:
        bb:b7:22:f4:7a:9c:01:ad:87:cf:67:d7:45:b5:df:72:b5:f9:
        68:6a:08:b2:0f:12:18:f6:09:36:6b:65:65:f5:9e:79:6c:96:
        00:3f:43:ae:93:88:29:1c:22:4c:0d:42:3b:7a:e5:84:a2:50:
        e5:1b:40:51:83:3d:20:54:26:e4:0a:7f:7c:62:c0:7d:eb:1b:
        02:2d:6c:4c:7d:9b:51:ca:5a:b8:3c:49:01:2a:f1:80:9b:35:
        4c:3c:50:e7:94:9b:c4:da:68:6d:80:4b:d0:0a:7e:a8:21:a9:
        77:5b:a6:e1:59:4e:63:73:fa:45:5f:47:87:d9:8a:92:f9:54:
        c1:d5:49:d0:8c:a4:31:3a:15:e9:0f:20:82:2e:e5:a0:dd:97:
        6a:72:0b:97:43:ad:d8:b0:ec:e9:39:33:65:32:56:7a:31:83:
        1f:aa:ba:73:07:57:08:a0:b9:d6:1d:87:41:c5:fb:b8:79:47:
        b8:81:df:93:19:bd:3e:3c
-----BEGIN CERTIFICATE-----
MIIGZTCCBE2gAwIBAgICEAEwDQYJKoZIhvcNAQEEBQAwfTELMAkGA1UEBhMCdXMx
DTALBgNVBAgMBHV0YWgxDDAKBgNVBAcMA3NsYzENMAsGA1UECgwEdW9mdTEMMAoG
A1UECwwDbXNkMQ4wDAYDVQQDDAV0ZXJyeTEkMCIGCSqGSIb3DQEJARYVdGFyb3Uy
MDAxQG91dGxvb2suY29tMB4XDTI0MDQwMTE5NTIwM1oXDTI1MDQwMTE5NTIwM1ow
UDELMAkGA1UEBhMCdXMxDTALBgNVBAgMBHV0YWgxDTALBgNVBAoMBHVvZnUxDDAK
BgNVBAsMA21zZDEVMBMGA1UEAwwMdGVycnlfY2xpZW50MIICIjANBgkqhkiG9w0B
AQEFAAOCAg8AMIICCgKCAgEAwYR4gyKgduw2b33DGCPKRVgxvXxtPjUQ0L7mReZq
GKkzVExSwUg76ouni+HnFPqXH8Zk6vsdyPoOlhHFcpsYZxKPWlWu0SSmJPeq8BsZ
5brkIN474KwAYqUaEkS/0Vc/PisQ8IHneLDh/aP0U+EQBu+AzJnayVGAclE7AmMh
/4nbtUxq6iuryhXyrYrzfAIkSCdpcWVr2jLxGRKVVRZ54myfqsfrOvkeVOWchAOX
7HD5vyohXG/6elq61gbtrnDrQ4Wen7XX1Owv8zT9uCpymkBd8mK/l1lsOm+H1aSb
uLPJluJaH7VOfTV8pgYYXoHucWWRgB5P9DSn9iAf7NglPfzBRwwX3fCdfyIjenU6
kw9Mf1FxnNmCVlCblVJifvIjmX0rhlopjoM1JUr3t66XE44EUd0YswhBatfVG5kF
DbHcv5zUBngkRyad2TwNRB+7V96mWLPEZ206jpaYiHfBiGqYIzbBvqHzZJQAbfBN
l9WivaMRnGP9WqZkVkVpsR22odDCnaYQiuxrysUzU5VG9wMTXUbwrOV6aiBljRKj
K01hM19DheBuqw2R7DINYirWlhIXaPRWbTjqHUSVeqC38pGQU4ABP06lQNeeD1hA
2HFxjwAfNVXjpfylYRxsZM6GI7BR+tr2HBTBzSTS39GXxaR+kKmruyVmelX006xY
rvkCAwEAAaOCARowggEWMAkGA1UdEwQCMAAwLAYJYIZIAYb4QgENBB8WHU9wZW5T
U0wgR2VuZXJhdGVkIENlcnRpZmljYXRlMB0GA1UdDgQWBBTnAgGE4Bum5vPZP6QB
B2D0BJZsyzCBuwYDVR0jBIGzMIGwgBSeGZwXY6c0rpRiaqyz9UuHdbzSZ6GBgaR/
MH0xCzAJBgNVBAYTAnVzMQ0wCwYDVQQIDAR1dGFoMQwwCgYDVQQHDANzbGMxDTAL
BgNVBAoMBHVvZnUxDDAKBgNVBAsMA21zZDEOMAwGA1UEAwwFdGVycnkxJDAiBgkq
hkiG9w0BCQEWFXRhcm91MjAwMUBvdXRsb29rLmNvbYIUTKa5u50i0r43NO0sqkeF
PJql00MwDQYJKoZIhvcNAQEEBQADggIBAGXAYHb187XznfqWzdVRDyqEP2R178AG
Uqpac2vYmtKepYL7IZXFFEpqwAIgBNRy8/WGFXhmaJnsv9yaAj6pnJNbxrZA0OiD
uqRvuqX09wll3ShN+ARYdK4dHJk1oZk9MqEpwaTcI5iKh8Bjg+zsbMTRZLvda71X
x4cx5yqh3MvGVTdhKS+vLhmlD3MVc6dIvhaLW7YFJD01Sbq1DIvHqH11Xx6Au4jT
BlQ7uGjlvNkigu2He8D1T1f/x9isfkfRTK6kMKz1fvGmaYmrmZPcVPeZSOWINN0W
z06wzTcWQyJHE1NOxTSLP4k/VRCA/8qzSs+KW8CI51TBdpyXPLjZ/GEXh2aroVM9
vokgdcvyb0mj3rhRSkM/rnb/L44SDXs9mZcDaau+mYDJ2GrRGpr6KsIK6WOvs3Hu
GXvr8SVd2ujmYGCtY7u3IvR6nAGth89n10W133K1+WhqCLIPEhj2CTZrZWX1nnls
lgA/Q66TiCkcIkwNQjt65YSiUOUbQFGDPSBUJuQKf3xiwH3rGwItbEx9m1HKWrg8
SQEq8YCbNUw8UOeUm8TaaG2AS9AKfqghqXdbpuFZTmNz+kVfR4fZipL5VMHVSdCM
pDE6FekPIIIu5aDdl2pyC5dDrdiw7Ok5M2UyVnoxgx+qunMHVwigudYdh0HF+7h5
R7iB35MZvT48
-----END CERTIFICATE-----
