Certificate:
    Data:
        Version: 3 (0x2)
        Serial Number: 4096 (0x1000)
        Signature Algorithm: md5WithRSAEncryption
        Issuer: C=us, ST=utah, L=slc, O=uofu, OU=msd, CN=terry/emailAddress=tarou2001@outlook.com
        Validity
            Not Before: Apr  1 18:59:41 2024 GMT
            Not After : Apr  1 18:59:41 2025 GMT
        Subject: C=us, ST=utah, O=uofu, OU=msd, CN=terry/emailAddress=tarou2001@outlook.com
        Subject Public Key Info:
            Public Key Algorithm: rsaEncryption
                Public-Key: (4096 bit)
                Modulus:
                    00:b0:d4:68:a8:1c:2e:70:96:09:3b:de:ef:c4:b7:
                    89:53:ad:79:b7:e6:08:3b:20:2d:45:e7:f2:92:d0:
                    bc:d4:d6:3b:9c:5e:97:08:5b:50:c1:c8:90:e8:2b:
                    f0:5f:73:e6:08:9d:94:9c:c5:aa:96:f2:ce:82:c3:
                    a5:d9:c1:84:22:eb:a2:53:28:46:e4:3e:7f:30:d2:
                    6d:41:ff:d0:fe:16:0e:9f:4e:17:8e:55:c2:ae:12:
                    5b:d0:12:d3:13:5a:4a:2e:03:0e:71:49:bb:d4:77:
                    0e:4a:cf:13:dc:e1:55:b1:6e:73:bd:74:aa:aa:66:
                    54:14:d9:d4:57:4b:ac:76:8e:9b:6e:6f:1c:49:9e:
                    99:e5:dc:94:37:00:7e:ca:b9:90:0e:f2:cd:b6:58:
                    ba:08:40:49:e4:4d:7f:92:8b:87:13:94:49:9f:19:
                    bc:24:d3:2c:35:f8:41:93:21:78:81:c3:16:fb:e5:
                    6f:5d:94:80:b2:27:4e:77:5c:e1:47:aa:76:08:83:
                    95:a3:36:76:a7:19:2d:86:c6:55:c2:59:fa:8d:f8:
                    f8:8b:5f:23:5f:42:4c:29:d2:47:fb:02:50:a0:9d:
                    97:04:03:80:84:d8:2e:8c:1e:ed:83:0e:55:c0:85:
                    12:05:20:ad:bf:d5:df:85:a8:c5:88:d3:42:38:47:
                    ff:b4:c9:31:f3:69:ef:93:5c:62:c8:d1:0a:6f:0d:
                    14:f0:c1:59:fa:d1:f6:c3:55:f4:9c:d8:ac:8e:4b:
                    db:67:79:e2:ef:2a:55:3e:3f:ea:8e:f0:da:a3:3a:
                    ca:99:34:7f:33:a9:69:4d:78:f2:b0:bb:f8:10:05:
                    c3:2a:60:8b:bc:69:87:8b:7d:09:f9:94:02:d5:9c:
                    48:ef:51:40:70:c4:b6:63:54:94:06:4d:aa:f3:7f:
                    ab:29:54:90:0a:a3:35:e0:7a:d2:12:ab:bc:da:87:
                    da:90:f6:a8:dd:bc:8c:06:35:45:0c:8e:55:31:ad:
                    f7:0d:dd:26:bf:8e:ef:45:ae:0f:a1:16:c6:1b:a3:
                    0f:50:28:cc:0c:01:75:3f:5c:1e:30:92:09:43:f9:
                    6e:72:56:97:1b:dd:83:1f:e4:fc:5c:8a:80:58:d0:
                    21:6f:94:ba:58:44:7c:43:49:ba:89:25:98:92:f6:
                    e9:7f:90:4e:9b:04:5c:a3:36:de:82:64:6c:66:60:
                    a9:3e:77:b3:6b:69:2f:a1:49:fa:4f:fc:12:fd:22:
                    94:67:4a:74:47:6f:b3:20:a8:eb:8e:24:5e:91:be:
                    51:29:b1:6e:b8:40:52:e9:41:14:71:c5:ea:ba:df:
                    64:32:cf:94:85:ae:04:ac:3c:ac:75:a1:2b:46:47:
                    d7:47:93
                Exponent: 65537 (0x10001)
        X509v3 extensions:
            X509v3 Basic Constraints: 
                CA:FALSE
            Netscape Comment: 
                OpenSSL Generated Certificate
            X509v3 Subject Key Identifier: 
                04:28:D2:65:69:CD:94:E4:3E:B1:32:D1:95:3A:67:76:12:A0:10:C1
            X509v3 Authority Key Identifier: 
                keyid:9E:19:9C:17:63:A7:34:AE:94:62:6A:AC:B3:F5:4B:87:75:BC:D2:67
                DirName:/C=us/ST=utah/L=slc/O=uofu/OU=msd/CN=terry/emailAddress=tarou2001@outlook.com
                serial:4C:A6:B9:BB:9D:22:D2:BE:37:34:ED:2C:AA:47:85:3C:9A:A5:D3:43
    Signature Algorithm: md5WithRSAEncryption
    Signature Value:
        39:2a:1c:7f:0d:e5:f0:a2:95:b3:cd:1c:c5:56:cc:4d:0c:cf:
        32:9f:a2:a2:7d:78:70:ff:25:11:e7:8d:67:98:a9:b6:39:1a:
        22:00:e6:a5:f2:b5:23:c4:dc:6e:e2:ef:07:91:f0:0b:c7:42:
        b5:b2:fb:7b:f4:ba:cd:48:8a:0c:b2:75:14:e7:fe:de:17:30:
        ae:43:5a:34:f5:e4:98:b7:15:94:6a:dd:f8:4a:02:fd:78:71:
        e7:b3:dc:81:d0:26:a2:23:3f:47:a9:04:f6:94:09:10:6d:14:
        f9:df:56:ee:9d:f1:b9:16:54:b4:b4:77:9f:08:9d:6c:75:a8:
        01:a4:f6:a9:3e:5f:ad:8e:1b:b0:a6:d2:a3:33:e1:ab:c2:68:
        5a:1d:61:5e:02:51:5e:c7:78:8d:42:ff:78:15:72:19:16:29:
        f3:6f:04:1c:a4:ea:f7:20:b0:d9:ac:2e:7e:fb:02:df:60:9e:
        9a:d6:a0:26:c2:be:aa:95:90:e9:5c:08:a2:66:bd:f6:d5:e5:
        ea:41:21:6f:f8:47:61:01:13:4c:00:04:92:4c:58:ac:5b:d4:
        3b:ba:fd:9b:c8:11:ae:5f:f6:0b:d5:35:27:3d:f7:0b:07:45:
        c8:24:06:ef:00:94:42:6f:90:0b:c9:ab:c7:24:34:ff:71:ab:
        9e:03:10:46:d1:9f:5f:a2:14:02:b7:cc:30:79:c9:61:b9:23:
        95:53:30:de:e4:da:a9:38:bf:86:5a:8d:2c:af:72:ec:d6:3f:
        f4:1a:76:a5:cd:69:b7:36:35:00:91:c2:a1:aa:b5:57:41:be:
        bd:05:ef:0d:f9:94:2f:44:f3:04:b3:8c:09:dd:b4:e4:00:49:
        76:2d:c7:4a:55:cf:81:ee:2e:ac:10:5a:93:e7:b9:37:d6:d7:
        36:ff:bb:aa:bb:8a:76:a0:7e:0c:cf:ad:cc:d5:e7:9b:b9:00:
        3d:fc:d3:cb:04:b2:b8:af:53:af:c9:ff:8a:96:d2:51:75:1f:
        1b:7e:fe:3b:83:ab:53:85:2d:df:ad:7c:e1:8b:7e:0d:45:b9:
        bc:9c:31:bc:78:de:75:9a:32:7a:a8:54:7a:e0:b6:be:0d:ac:
        29:74:4c:1d:79:67:cc:27:ee:fb:7d:54:e3:fa:c2:fd:12:06:
        e6:49:62:52:34:8b:2b:57:a6:d1:81:25:d7:48:35:49:87:e8:
        ad:9a:20:52:8e:22:18:d4:79:fd:be:b9:bb:10:97:9d:6f:4f:
        43:03:d5:c2:eb:6f:6c:4d:4d:f5:13:e2:8d:db:86:09:fd:c2:
        b2:aa:f6:16:52:c7:19:35:8c:72:41:6d:e1:f2:60:2a:8d:35:
        8e:d3:d4:7a:ad:97:4d:8c
-----BEGIN CERTIFICATE-----
MIIGhDCCBGygAwIBAgICEAAwDQYJKoZIhvcNAQEEBQAwfTELMAkGA1UEBhMCdXMx
DTALBgNVBAgMBHV0YWgxDDAKBgNVBAcMA3NsYzENMAsGA1UECgwEdW9mdTEMMAoG
A1UECwwDbXNkMQ4wDAYDVQQDDAV0ZXJyeTEkMCIGCSqGSIb3DQEJARYVdGFyb3Uy
MDAxQG91dGxvb2suY29tMB4XDTI0MDQwMTE4NTk0MVoXDTI1MDQwMTE4NTk0MVow
bzELMAkGA1UEBhMCdXMxDTALBgNVBAgMBHV0YWgxDTALBgNVBAoMBHVvZnUxDDAK
BgNVBAsMA21zZDEOMAwGA1UEAwwFdGVycnkxJDAiBgkqhkiG9w0BCQEWFXRhcm91
MjAwMUBvdXRsb29rLmNvbTCCAiIwDQYJKoZIhvcNAQEBBQADggIPADCCAgoCggIB
ALDUaKgcLnCWCTve78S3iVOtebfmCDsgLUXn8pLQvNTWO5xelwhbUMHIkOgr8F9z
5gidlJzFqpbyzoLDpdnBhCLrolMoRuQ+fzDSbUH/0P4WDp9OF45Vwq4SW9AS0xNa
Si4DDnFJu9R3DkrPE9zhVbFuc710qqpmVBTZ1FdLrHaOm25vHEmemeXclDcAfsq5
kA7yzbZYughASeRNf5KLhxOUSZ8ZvCTTLDX4QZMheIHDFvvlb12UgLInTndc4Ueq
dgiDlaM2dqcZLYbGVcJZ+o34+ItfI19CTCnSR/sCUKCdlwQDgITYLowe7YMOVcCF
EgUgrb/V34WoxYjTQjhH/7TJMfNp75NcYsjRCm8NFPDBWfrR9sNV9JzYrI5L22d5
4u8qVT4/6o7w2qM6ypk0fzOpaU148rC7+BAFwypgi7xph4t9CfmUAtWcSO9RQHDE
tmNUlAZNqvN/qylUkAqjNeB60hKrvNqH2pD2qN28jAY1RQyOVTGt9w3dJr+O70Wu
D6EWxhujD1AozAwBdT9cHjCSCUP5bnJWlxvdgx/k/FyKgFjQIW+UulhEfENJuokl
mJL26X+QTpsEXKM23oJkbGZgqT53s2tpL6FJ+k/8Ev0ilGdKdEdvsyCo644kXpG+
USmxbrhAUulBFHHF6rrfZDLPlIWuBKw8rHWhK0ZH10eTAgMBAAGjggEaMIIBFjAJ
BgNVHRMEAjAAMCwGCWCGSAGG+EIBDQQfFh1PcGVuU1NMIEdlbmVyYXRlZCBDZXJ0
aWZpY2F0ZTAdBgNVHQ4EFgQUBCjSZWnNlOQ+sTLRlTpndhKgEMEwgbsGA1UdIwSB
szCBsIAUnhmcF2OnNK6UYmqss/VLh3W80mehgYGkfzB9MQswCQYDVQQGEwJ1czEN
MAsGA1UECAwEdXRhaDEMMAoGA1UEBwwDc2xjMQ0wCwYDVQQKDAR1b2Z1MQwwCgYD
VQQLDANtc2QxDjAMBgNVBAMMBXRlcnJ5MSQwIgYJKoZIhvcNAQkBFhV0YXJvdTIw
MDFAb3V0bG9vay5jb22CFEymubudItK+NzTtLKpHhTyapdNDMA0GCSqGSIb3DQEB
BAUAA4ICAQA5Khx/DeXwopWzzRzFVsxNDM8yn6KifXhw/yUR541nmKm2ORoiAOal
8rUjxNxu4u8HkfALx0K1svt79LrNSIoMsnUU5/7eFzCuQ1o09eSYtxWUat34SgL9
eHHns9yB0CaiIz9HqQT2lAkQbRT531bunfG5FlS0tHefCJ1sdagBpPapPl+tjhuw
ptKjM+GrwmhaHWFeAlFex3iNQv94FXIZFinzbwQcpOr3ILDZrC5++wLfYJ6a1qAm
wr6qlZDpXAiiZr321eXqQSFv+EdhARNMAASSTFisW9Q7uv2byBGuX/YL1TUnPfcL
B0XIJAbvAJRCb5ALyavHJDT/caueAxBG0Z9fohQCt8wweclhuSOVUzDe5NqpOL+G
Wo0sr3Ls1j/0GnalzWm3NjUAkcKhqrVXQb69Be8N+ZQvRPMEs4wJ3bTkAEl2LcdK
Vc+B7i6sEFqT57k31tc2/7uqu4p2oH4Mz63M1eebuQA9/NPLBLK4r1Ovyf+KltJR
dR8bfv47g6tThS3frXzhi34NRbm8nDG8eN51mjJ6qFR64La+DawpdEwdeWfMJ+77
fVTj+sL9EgbmSWJSNIsrV6bRgSXXSDVJh+itmiBSjiIY1Hn9vrm7EJedb09DA9XC
629sTU31E+KN24YJ/cKyqvYWUscZNYxyQW3h8mAqjTWO09R6rZdNjA==
-----END CERTIFICATE-----
